target datalayout = "e-m:e-p270:32:32-p271:32:32-p272:64:64-i64:64-i128:128-f80:128-n8:16:32:64-S128"
target triple = "x86_64-pc-linux-gnu"

; Function Attrs: mustprogress nounwind uwtable
define linkonce_odr dso_local void @_Z13DoNotOptimizeIiEvPT_(ptr noundef %0) #0 comdat {
  %2 = alloca ptr, align 8
  store ptr %0, ptr %2, align 8
  %3 = load ptr, ptr %2, align 8
  %4 = call ptr asm sideeffect "", "=r,0,~{dirflag},~{fpsr},~{flags}"(ptr %3) #11, !srcloc !7
  store ptr %4, ptr %2, align 8
  ret void
}

; Function Attrs: mustprogress uwtable
define dso_local void @_ZN17BM_FlatArray_Push4BodyEv() #4 align 2 {
  %1 = alloca i32, align 4
  %2 = alloca ptr, align 8
  %3 = alloca i32, align 4
  %4 = alloca ptr, align 8
  store i32 64, ptr %1, align 4
  %5 = load i32, ptr %1, align 4
  %6 = sext i32 %5 to i64
  %7 = mul i64 %6, 4
  %8 = call noundef ptr @_Z7rcAllocm11rcAllocHint(i64 noundef %7, i32 noundef 1)
  store ptr %8, ptr %2, align 8
  store i32 0, ptr %3, align 4
  br label %9

9:                                                ; preds = %36, %0
  %10 = load i32, ptr %3, align 4
  %11 = sext i32 %10 to i64
  %12 = icmp slt i64 %11, 100000
  br i1 %12, label %13, label %39

13:                                               ; preds = %9
  %14 = load i32, ptr %3, align 4
  %15 = load i32, ptr %1, align 4
  %16 = icmp eq i32 %14, %15
  br i1 %16, label %17, label %31

17:                                               ; preds = %13
  %18 = load i32, ptr %1, align 4
  %19 = mul nsw i32 %18, 2
  store i32 %19, ptr %1, align 4
  %20 = load i32, ptr %1, align 4
  %21 = sext i32 %20 to i64
  %22 = mul i64 4, %21
  %23 = call noundef ptr @_Z7rcAllocm11rcAllocHint(i64 noundef %22, i32 noundef 1)
  store ptr %23, ptr %4, align 8
  %24 = load ptr, ptr %4, align 8
  %25 = load ptr, ptr %2, align 8
  %26 = load i32, ptr %3, align 4
  %27 = sext i32 %26 to i64
  %28 = mul i64 %27, 4
  call void @llvm.memcpy.p0.p0.i64(ptr align 4 %24, ptr align 4 %25, i64 %28, i1 false)
  %29 = load ptr, ptr %2, align 8
  call void @_Z6rcFreePv(ptr noundef %29)
  %30 = load ptr, ptr %4, align 8
  store ptr %30, ptr %2, align 8
  br label %31

31:                                               ; preds = %17, %13
  %32 = load ptr, ptr %2, align 8
  %33 = load i32, ptr %3, align 4
  %34 = sext i32 %33 to i64
  %35 = getelementptr inbounds i32, ptr %32, i64 %34
  store i32 2, ptr %35, align 4
  br label %36

36:                                               ; preds = %31
  %37 = load i32, ptr %3, align 4
  %38 = add nsw i32 %37, 1
  store i32 %38, ptr %3, align 4
  br label %9, !llvm.loop !5

39:                                               ; preds = %9
  %40 = load ptr, ptr %2, align 8
  call void @_Z13DoNotOptimizeIiEvPT_(ptr noundef %40)
  %41 = load ptr, ptr %2, align 8
  call void @_Z6rcFreePv(ptr noundef %41)
  ret void
}