; Function Attrs: mustprogress uwtable
define dso_local void @_ZN17BM_FlatArray_Push4BodyEv() local_unnamed_addr #3 align 2 {
  %1 = tail call noundef ptr @_Z7rcAllocm11rcAllocHint(i64 noundef 256, i32 noundef 1)
  br label %2

2:                                                ; preds = %0, %11
  %indvars.iv = phi i64 [ 0, %0 ], [ %indvars.iv.next, %11 ]
  %.021 = phi i32 [ 64, %0 ], [ %.1, %11 ]
  %.01619 = phi ptr [ %1, %0 ], [ %.117, %11 ]
  %3 = zext nneg i32 %.021 to i64
  %4 = icmp eq i64 %indvars.iv, %3
  br i1 %4, label %5, label %11

5:                                                ; preds = %2
  %6 = shl nuw nsw i32 %.021, 1
  %7 = zext nneg i32 %6 to i64
  %8 = shl nuw nsw i64 %7, 2
  %9 = tail call noundef ptr @_Z7rcAllocm11rcAllocHint(i64 noundef %8, i32 noundef 1)
  %10 = shl nuw nsw i64 %indvars.iv, 2
  tail call void @llvm.memcpy.p0.p0.i64(ptr align 4 %9, ptr align 4 %.01619, i64 %10, i1 false)
  tail call void @_Z6rcFreePv(ptr noundef %.01619)
  br label %11

11:                                               ; preds = %5, %2
  %.117 = phi ptr [ %9, %5 ], [ %.01619, %2 ]
  %.1 = phi i32 [ %6, %5 ], [ %.021, %2 ]
  %12 = getelementptr inbounds nuw i32, ptr %.117, i64 %indvars.iv
  store i32 2, ptr %12, align 4
  %indvars.iv.next = add nuw nsw i64 %indvars.iv, 1
  %exitcond.not = icmp eq i64 %indvars.iv.next, 100000
  br i1 %exitcond.not, label %13, label %2, !llvm.loop !5

13:                                               ; preds = %11
  %14 = tail call ptr asm sideeffect "", "=r,0,~{dirflag},~{fpsr},~{flags}"(ptr nonnull %.117) #16, !srcloc !7
  tail call void @_Z6rcFreePv(ptr noundef nonnull %.117)
  ret void
}